target datalayout = "e-m:e-p270:32:32-p271:32:32-p272:64:64-i64:64-i128:128-f80:128-n8:16:32:64-S128"
target triple = "x86_64-unknown-linux-gnu"

%struct.QEMUClock = type { %struct.anon.0, i32, i8 }
%struct.anon.0 = type { ptr }
%struct.QEMUTimerList = type { ptr, %struct.QemuMutex, ptr, %struct.anon, ptr, ptr, %struct.QemuEvent }
%struct.QemuMutex = type { %union.pthread_mutex_t, i8 }
%union.pthread_mutex_t = type { %struct.__pthread_mutex_s }
%struct.__pthread_mutex_s = type { i32, i32, i32, i32, i32, i16, i16, %struct.__pthread_internal_list }
%struct.__pthread_internal_list = type { ptr, ptr }
%struct.anon = type { ptr, ptr }
%struct.QemuEvent = type { i32, i8 }
%struct.QEMUTimer = type { i64, ptr, ptr, ptr, ptr, i32, i32 }

@.str.1 = private unnamed_addr constant [26 x i8] c"../qemu/util/qemu-timer.c\00", align 1
@__func__.qemu_clock_deadline_ns_all = private unnamed_addr constant [27 x i8] c"qemu_clock_deadline_ns_all\00", align 1
@qemu_mutex_lock_func = external global ptr, align 8
@qemu_clocks = internal global [4 x %struct.QEMUClock] zeroinitializer, align 16

; Function Attrs: nounwind sspstrong uwtable
define internal i64 @qemu_soonest_timeout(i64 noundef %timeout1, i64 noundef %timeout2) #0 {
entry:
  %timeout1.addr = alloca i64, align 8
  %timeout2.addr = alloca i64, align 8
  store i64 %timeout1, ptr %timeout1.addr, align 8
  store i64 %timeout2, ptr %timeout2.addr, align 8
  %0 = load i64, ptr %timeout1.addr, align 8
  %1 = load i64, ptr %timeout2.addr, align 8
  %cmp = icmp ult i64 %0, %1
  br i1 %cmp, label %cond.true, label %cond.false

cond.true:                                        ; preds = %entry
  %2 = load i64, ptr %timeout1.addr, align 8
  br label %cond.end

cond.false:                                       ; preds = %entry
  %3 = load i64, ptr %timeout2.addr, align 8
  br label %cond.end

cond.end:                                         ; preds = %cond.false, %cond.true
  %cond = phi i64 [ %2, %cond.true ], [ %3, %cond.false ]
  ret i64 %cond
}

; Function Attrs: nounwind sspstrong uwtable
define internal ptr @qemu_clock_ptr(i32 noundef %type) #0 {
entry:
  %type.addr = alloca i32, align 4
  store i32 %type, ptr %type.addr, align 4
  %0 = load i32, ptr %type.addr, align 4
  %idxprom = zext i32 %0 to i64
  %arrayidx = getelementptr [4 x %struct.QEMUClock], ptr @qemu_clocks, i64 0, i64 %idxprom
  ret ptr %arrayidx
}

; Function Attrs: nounwind sspstrong uwtable
define dso_local i64 @qemu_clock_deadline_ns_all(i32 noundef %type, i32 noundef %attr_mask) #0 {
entry:
  %retval = alloca i64, align 8
  %type.addr = alloca i32, align 4
  %attr_mask.addr = alloca i32, align 4
  %deadline = alloca i64, align 8
  %delta = alloca i64, align 8
  %expire_time = alloca i64, align 8
  %ts = alloca ptr, align 8
  %timer_list = alloca ptr, align 8
  %clock = alloca ptr, align 8
  %tmp = alloca ptr, align 8
  %atomic-temp = alloca ptr, align 8
  %_f = alloca ptr, align 8
  %tmp10 = alloca ptr, align 8
  %atomic-temp11 = alloca ptr, align 8
  store i32 %type, ptr %type.addr, align 4
  store i32 %attr_mask, ptr %attr_mask.addr, align 4
  store i64 -1, ptr %deadline, align 8
  %0 = load i32, ptr %type.addr, align 4
  %call = call ptr @qemu_clock_ptr(i32 noundef %0)
  store ptr %call, ptr %clock, align 8
  %1 = load ptr, ptr %clock, align 8
  %enabled = getelementptr inbounds %struct.QEMUClock, ptr %1, i32 0, i32 2
  %2 = load i8, ptr %enabled, align 4
  %tobool = trunc i8 %2 to i1
  br i1 %tobool, label %if.end, label %if.then

if.then:                                          ; preds = %entry
  store i64 -1, ptr %retval, align 8
  br label %return

if.end:                                           ; preds = %entry
  %3 = load ptr, ptr %clock, align 8
  %timerlists = getelementptr inbounds %struct.QEMUClock, ptr %3, i32 0, i32 0
  %lh_first = getelementptr inbounds %struct.anon.0, ptr %timerlists, i32 0, i32 0
  %4 = load ptr, ptr %lh_first, align 8
  store ptr %4, ptr %timer_list, align 8
  br label %for.cond

for.cond:                                         ; preds = %for.inc, %if.end
  %5 = load ptr, ptr %timer_list, align 8
  %tobool1 = icmp ne ptr %5, null
  br i1 %tobool1, label %for.body, label %for.end

for.body:                                         ; preds = %for.cond
  br label %while.cond

while.cond:                                       ; preds = %do.end, %for.body
  br i1 false, label %while.body, label %while.end

while.body:                                       ; preds = %while.cond
  br label %do.body

do.body:                                          ; preds = %while.body
  call void @g_assertion_message_expr(ptr noundef null, ptr noundef @.str.1, i32 noundef 264, ptr noundef @__func__.qemu_clock_deadline_ns_all, ptr noundef null) #8
  unreachable

do.end:                                           ; No predecessors!
  br label %while.cond

while.end:                                        ; preds = %while.cond
  %6 = load ptr, ptr %timer_list, align 8
  %active_timers = getelementptr inbounds %struct.QEMUTimerList, ptr %6, i32 0, i32 2
  %7 = load atomic i64, ptr %active_timers monotonic, align 8
  store i64 %7, ptr %atomic-temp, align 8
  %8 = load ptr, ptr %atomic-temp, align 8
  store ptr %8, ptr %tmp, align 8
  %9 = load ptr, ptr %tmp, align 8
  %tobool2 = icmp ne ptr %9, null
  br i1 %tobool2, label %if.end4, label %if.then3

if.then3:                                         ; preds = %while.end
  br label %for.inc

if.end4:                                          ; preds = %while.end
  br label %while.cond5

while.cond5:                                      ; preds = %do.end8, %if.end4
  br i1 false, label %while.body6, label %while.end9

while.body6:                                      ; preds = %while.cond5
  br label %do.body7

do.body7:                                         ; preds = %while.body6
  call void @g_assertion_message_expr(ptr noundef null, ptr noundef @.str.1, i32 noundef 267, ptr noundef @__func__.qemu_clock_deadline_ns_all, ptr noundef null) #8
  unreachable

do.end8:                                          ; No predecessors!
  br label %while.cond5

while.end9:                                       ; preds = %while.cond5
  %10 = load atomic i64, ptr @qemu_mutex_lock_func monotonic, align 8
  store i64 %10, ptr %atomic-temp11, align 8
  %11 = load ptr, ptr %atomic-temp11, align 8
  store ptr %11, ptr %tmp10, align 8
  %12 = load ptr, ptr %tmp10, align 8
  store ptr %12, ptr %_f, align 8
  %13 = load ptr, ptr %_f, align 8
  %14 = load ptr, ptr %timer_list, align 8
  %active_timers_lock = getelementptr inbounds %struct.QEMUTimerList, ptr %14, i32 0, i32 1
  call void %13(ptr noundef %active_timers_lock, ptr noundef @.str.1, i32 noundef 267)
  %15 = load ptr, ptr %timer_list, align 8
  %active_timers12 = getelementptr inbounds %struct.QEMUTimerList, ptr %15, i32 0, i32 2
  %16 = load ptr, ptr %active_timers12, align 8
  store ptr %16, ptr %ts, align 8
  br label %while.cond13

while.cond13:                                     ; preds = %while.body16, %while.end9
  %17 = load ptr, ptr %ts, align 8
  %tobool14 = icmp ne ptr %17, null
  br i1 %tobool14, label %land.rhs, label %land.end

land.rhs:                                         ; preds = %while.cond13
  %18 = load ptr, ptr %ts, align 8
  %attributes = getelementptr inbounds %struct.QEMUTimer, ptr %18, i32 0, i32 5
  %19 = load i32, ptr %attributes, align 8
  %20 = load i32, ptr %attr_mask.addr, align 4
  %not = xor i32 %20, -1
  %and = and i32 %19, %not
  %tobool15 = icmp ne i32 %and, 0
  br label %land.end

land.end:                                         ; preds = %land.rhs, %while.cond13
  %21 = phi i1 [ false, %while.cond13 ], [ %tobool15, %land.rhs ]
  br i1 %21, label %while.body16, label %while.end17

while.body16:                                     ; preds = %land.end
  %22 = load ptr, ptr %ts, align 8
  %next = getelementptr inbounds %struct.QEMUTimer, ptr %22, i32 0, i32 4
  %23 = load ptr, ptr %next, align 8
  store ptr %23, ptr %ts, align 8
  br label %while.cond13, !llvm.loop !10

while.end17:                                      ; preds = %land.end
  %24 = load ptr, ptr %ts, align 8
  %tobool18 = icmp ne ptr %24, null
  br i1 %tobool18, label %if.end21, label %if.then19

if.then19:                                        ; preds = %while.end17
  %25 = load ptr, ptr %timer_list, align 8
  %active_timers_lock20 = getelementptr inbounds %struct.QEMUTimerList, ptr %25, i32 0, i32 1
  call void @qemu_mutex_unlock_impl(ptr noundef %active_timers_lock20, ptr noundef @.str.1, i32 noundef 274)
  br label %for.inc

if.end21:                                         ; preds = %while.end17
  %26 = load ptr, ptr %ts, align 8
  %expire_time22 = getelementptr inbounds %struct.QEMUTimer, ptr %26, i32 0, i32 0
  %27 = load i64, ptr %expire_time22, align 8
  store i64 %27, ptr %expire_time, align 8
  %28 = load ptr, ptr %timer_list, align 8
  %active_timers_lock23 = getelementptr inbounds %struct.QEMUTimerList, ptr %28, i32 0, i32 1
  call void @qemu_mutex_unlock_impl(ptr noundef %active_timers_lock23, ptr noundef @.str.1, i32 noundef 278)
  %29 = load i64, ptr %expire_time, align 8
  %30 = load i32, ptr %type.addr, align 4
  %call24 = call i64 @qemu_clock_get_ns(i32 noundef %30)
  %sub = sub i64 %29, %call24
  store i64 %sub, ptr %delta, align 8
  %31 = load i64, ptr %delta, align 8
  %cmp = icmp sle i64 %31, 0
  br i1 %cmp, label %if.then25, label %if.end26

if.then25:                                        ; preds = %if.end21
  store i64 0, ptr %delta, align 8
  br label %if.end26

if.end26:                                         ; preds = %if.then25, %if.end21
  %32 = load i64, ptr %deadline, align 8
  %33 = load i64, ptr %delta, align 8
  %call27 = call i64 @qemu_soonest_timeout(i64 noundef %32, i64 noundef %33)
  store i64 %call27, ptr %deadline, align 8
  br label %for.inc

for.inc:                                          ; preds = %if.end26, %if.then19, %if.then3
  %34 = load ptr, ptr %timer_list, align 8
  %list = getelementptr inbounds %struct.QEMUTimerList, ptr %34, i32 0, i32 3
  %le_next = getelementptr inbounds %struct.anon, ptr %list, i32 0, i32 0
  %35 = load ptr, ptr %le_next, align 8
  store ptr %35, ptr %timer_list, align 8
  br label %for.cond, !llvm.loop !11

for.end:                                          ; preds = %for.cond
  %36 = load i64, ptr %deadline, align 8
  store i64 %36, ptr %retval, align 8
  br label %return

return:                                           ; preds = %for.end, %if.then
  %37 = load i64, ptr %retval, align 8
  ret i64 %37
}