; Function Attrs: nounwind sspstrong uwtable
define dso_local range(i64 -1, -9223372036854775808) i64 @qemu_clock_deadline_ns_all(i32 noundef %type, i32 noundef %attr_mask) local_unnamed_addr #0 {
entry:
  %idxprom.i = zext i32 %type to i64
  %arrayidx.i = getelementptr [4 x %struct.QEMUClock], ptr @qemu_clocks, i64 0, i64 %idxprom.i
  %enabled = getelementptr inbounds nuw i8, ptr %arrayidx.i, i64 12
  %0 = load i8, ptr %enabled, align 4
  %tobool = trunc i8 %0 to i1
  br i1 %tobool, label %for.cond.preheader, label %return

for.cond.preheader:                               ; preds = %entry
  %timer_list.019 = load ptr, ptr %arrayidx.i, align 16
  %tobool1.not20 = icmp eq ptr %timer_list.019, null
  br i1 %tobool1.not20, label %return, label %while.end.lr.ph

while.end.lr.ph:                                  ; preds = %for.cond.preheader
  %not = xor i32 %attr_mask, -1
  br label %while.end

while.end:                                        ; preds = %while.end.lr.ph, %for.inc
  %timer_list.022 = phi ptr [ %timer_list.019, %while.end.lr.ph ], [ %timer_list.0, %for.inc ]
  %deadline.021 = phi i64 [ -1, %while.end.lr.ph ], [ %deadline.1, %for.inc ]
  %active_timers = getelementptr inbounds nuw i8, ptr %timer_list.022, i64 56
  %1 = load atomic i64, ptr %active_timers monotonic, align 8
  %tobool2.not = icmp eq i64 %1, 0
  br i1 %tobool2.not, label %for.inc, label %while.end9

while.end9:                                       ; preds = %while.end
  %2 = load atomic i64, ptr @qemu_mutex_lock_func monotonic, align 8
  %3 = inttoptr i64 %2 to ptr
  %active_timers_lock = getelementptr inbounds nuw i8, ptr %timer_list.022, i64 8
  tail call void %3(ptr noundef nonnull %active_timers_lock, ptr noundef nonnull @.str.1, i32 noundef 267) #17
  %ts.016 = load ptr, ptr %active_timers, align 8
  %tobool14.not17 = icmp eq ptr %ts.016, null
  br i1 %tobool14.not17, label %if.then19, label %land.rhs

land.rhs:                                         ; preds = %while.end9, %while.body16
  %ts.018 = phi ptr [ %ts.0, %while.body16 ], [ %ts.016, %while.end9 ]
  %attributes = getelementptr inbounds nuw i8, ptr %ts.018, i64 40
  %4 = load i32, ptr %attributes, align 8
  %and = and i32 %4, %not
  %tobool15.not = icmp eq i32 %and, 0
  br i1 %tobool15.not, label %if.end21, label %while.body16

while.body16:                                     ; preds = %land.rhs
  %next = getelementptr inbounds nuw i8, ptr %ts.018, i64 32
  %ts.0 = load ptr, ptr %next, align 8
  %tobool14.not = icmp eq ptr %ts.0, null
  br i1 %tobool14.not, label %if.then19, label %land.rhs, !llvm.loop !8

if.then19:                                        ; preds = %while.body16, %while.end9
  tail call void @qemu_mutex_unlock_impl(ptr noundef nonnull %active_timers_lock, ptr noundef nonnull @.str.1, i32 noundef 274) #17
  br label %for.inc

if.end21:                                         ; preds = %land.rhs
  %5 = load i64, ptr %ts.018, align 8
  tail call void @qemu_mutex_unlock_impl(ptr noundef nonnull %active_timers_lock, ptr noundef nonnull @.str.1, i32 noundef 278) #17
  %call24 = tail call i64 @qemu_clock_get_ns(i32 noundef %type)
  %sub = sub i64 %5, %call24
  %spec.store.select = tail call i64 @llvm.smax.i64(i64 %sub, i64 0)
  %cond.i = tail call noundef i64 @llvm.umin.i64(i64 %deadline.021, i64 %spec.store.select)
  br label %for.inc

for.inc:                                          ; preds = %while.end, %if.end21, %if.then19
  %deadline.1 = phi i64 [ %cond.i, %if.end21 ], [ %deadline.021, %if.then19 ], [ %deadline.021, %while.end ]
  %list = getelementptr inbounds nuw i8, ptr %timer_list.022, i64 64
  %timer_list.0 = load ptr, ptr %list, align 8
  %tobool1.not = icmp eq ptr %timer_list.0, null
  br i1 %tobool1.not, label %return, label %while.end, !llvm.loop !9

return:                                           ; preds = %for.inc, %for.cond.preheader, %entry
  %retval.0 = phi i64 [ -1, %entry ], [ -1, %for.cond.preheader ], [ %deadline.1, %for.inc ]
  ret i64 %retval.0
}